target datalayout = "e-m:e-p270:32:32-p271:32:32-p272:64:64-i64:64-i128:128-f80:128-n8:16:32:64-S128"
target triple = "x86_64-pc-linux-gnu"

%"union.absl::lts_20240722::internal_any_invocable::TypeErasedState" = type { %struct.anon }
%struct.anon = type { ptr, i64 }
%"class.absl::lts_20240722::Status" = type { i64 }
%"struct.grpc_core::HandshakerArgs" = type { %"class.std::unique_ptr", %"class.grpc_core::ChannelArgs", %"class.grpc_core::SliceBuffer", i8, ptr, %"class.grpc_core::Timestamp", ptr }
%"class.std::unique_ptr" = type { %"struct.std::__uniq_ptr_data" }
%"struct.std::__uniq_ptr_data" = type { %"class.std::__uniq_ptr_impl" }
%"class.std::__uniq_ptr_impl" = type { %"class.std::tuple" }
%"class.std::tuple" = type { %"struct.std::_Tuple_impl" }
%"struct.std::_Tuple_impl" = type { %"struct.std::_Head_base.1" }
%"struct.std::_Head_base.1" = type { ptr }
%"class.grpc_core::ChannelArgs" = type { %"class.grpc_core::AVL" }
%"class.grpc_core::AVL" = type { %"class.grpc_core::RefCountedPtr" }
%"class.grpc_core::RefCountedPtr" = type { ptr }
%"class.grpc_core::SliceBuffer" = type { %struct.grpc_slice_buffer }
%struct.grpc_slice_buffer = type { ptr, ptr, i64, i64, i64, [6 x %struct.grpc_slice] }
%struct.grpc_slice = type { ptr, %"union.grpc_slice::grpc_slice_data" }
%"union.grpc_slice::grpc_slice_data" = type { %"struct.grpc_slice::grpc_slice_data::grpc_slice_refcounted", [8 x i8] }
%"struct.grpc_slice::grpc_slice_data::grpc_slice_refcounted" = type { i64, ptr }
%"class.grpc_core::Timestamp" = type { i64 }
%"class.grpc_core::HandshakeManager" = type { %"class.grpc_core::RefCounted", %"class.absl::lts_20240722::Mutex", i8, i64, %"class.absl::lts_20240722::InlinedVector", %"struct.grpc_core::HandshakerArgs", [8 x i8], %"class.absl::lts_20240722::AnyInvocable.6", %"struct.grpc_event_engine::experimental::EventEngine::TaskHandle" }
%"class.grpc_core::RefCounted" = type { %"class.grpc_core::PolymorphicRefCount", %"class.grpc_core::RefCount" }
%"class.grpc_core::PolymorphicRefCount" = type { ptr }
%"class.grpc_core::RefCount" = type { %"struct.std::atomic" }
%"struct.std::atomic" = type { %"struct.std::__atomic_base" }
%"struct.std::__atomic_base" = type { i64 }
%"class.absl::lts_20240722::Mutex" = type { %"struct.std::atomic" }
%"class.absl::lts_20240722::InlinedVector" = type { %"class.absl::lts_20240722::inlined_vector_internal::Storage" }
%"class.absl::lts_20240722::inlined_vector_internal::Storage" = type { %"class.absl::lts_20240722::container_internal::CompressedTuple", %"union.absl::lts_20240722::inlined_vector_internal::Storage<grpc_core::RefCountedPtr<grpc_core::Handshaker>, 2, std::allocator<grpc_core::RefCountedPtr<grpc_core::Handshaker>>>::Data" }
%"class.absl::lts_20240722::container_internal::CompressedTuple" = type { %"struct.absl::lts_20240722::container_internal::internal_compressed_tuple::CompressedTupleImpl" }
%"struct.absl::lts_20240722::container_internal::internal_compressed_tuple::CompressedTupleImpl" = type { %"struct.absl::lts_20240722::container_internal::internal_compressed_tuple::Storage.5" }
%"struct.absl::lts_20240722::container_internal::internal_compressed_tuple::Storage.5" = type { i64 }
%"union.absl::lts_20240722::inlined_vector_internal::Storage<grpc_core::RefCountedPtr<grpc_core::Handshaker>, 2, std::allocator<grpc_core::RefCountedPtr<grpc_core::Handshaker>>>::Data" = type { %"struct.absl::lts_20240722::inlined_vector_internal::Storage<grpc_core::RefCountedPtr<grpc_core::Handshaker>, 2, std::allocator<grpc_core::RefCountedPtr<grpc_core::Handshaker>>>::Allocated" }
%"struct.absl::lts_20240722::inlined_vector_internal::Storage<grpc_core::RefCountedPtr<grpc_core::Handshaker>, 2, std::allocator<grpc_core::RefCountedPtr<grpc_core::Handshaker>>>::Allocated" = type { ptr, i64 }
%"class.absl::lts_20240722::AnyInvocable.6" = type { %"class.absl::lts_20240722::internal_any_invocable::Impl.7" }
%"class.absl::lts_20240722::internal_any_invocable::Impl.7" = type { %"class.absl::lts_20240722::internal_any_invocable::CoreImpl.8" }
%"class.absl::lts_20240722::internal_any_invocable::CoreImpl.8" = type { %"union.absl::lts_20240722::internal_any_invocable::TypeErasedState", ptr, ptr }
%"struct.grpc_event_engine::experimental::EventEngine::TaskHandle" = type { [2 x i64] }
%"class.absl::lts_20240722::MutexLock" = type { ptr }
%"class.grpc_core::RefCountedPtr.24" = type { ptr }
%class.anon.33 = type { %"class.grpc_core::RefCountedPtr.24" }

; Function Attrs: mustprogress nounwind uwtable
define linkonce_odr noundef i64 @_ZN4absl12lts_202407226Status16CodeToInlinedRepENS0_10StatusCodeE(i32 noundef %0) #6 comdat align 2 {
  %2 = alloca i32, align 4
  store i32 %0, ptr %2, align 4, !tbaa !166
  %3 = load i32, ptr %2, align 4, !tbaa !166
  %4 = sext i32 %3 to i64
  %5 = shl i64 %4, 2
  %6 = add i64 %5, 1
  ret i64 %6
}

; Function Attrs: mustprogress nounwind uwtable
define linkonce_odr void @_ZN4absl12lts_202407229MutexLockD2Ev(ptr noundef nonnull align 8 dereferenceable(8) %0) unnamed_addr #6 comdat align 2 personality ptr @__gxx_personality_v0 {
  %2 = alloca ptr, align 8
  store ptr %0, ptr %2, align 8, !tbaa !83
  %3 = load ptr, ptr %2, align 8
  %4 = getelementptr inbounds nuw %"class.absl::lts_20240722::MutexLock", ptr %3, i32 0, i32 0
  %5 = load ptr, ptr %4, align 8, !tbaa !85
  invoke void @_ZN4absl12lts_202407225Mutex6UnlockEv(ptr noundef nonnull align 8 dereferenceable(8) %5)
          to label %6 unwind label %7

6:                                                ; preds = %1
  ret void

7:                                                ; preds = %1
  %8 = landingpad { ptr, i32 }
          catch ptr null
  %9 = extractvalue { ptr, i32 } %8, 0
  call void @__clang_call_terminate(ptr %9) #23
  unreachable
}

; Function Attrs: mustprogress uwtable
define linkonce_odr void @_ZN4absl12lts_202407229MutexLockC2EPNS0_5MutexE(ptr noundef nonnull align 8 dereferenceable(8) %0, ptr noundef %1) unnamed_addr #4 comdat align 2 {
  %3 = alloca ptr, align 8
  %4 = alloca ptr, align 8
  store ptr %0, ptr %3, align 8, !tbaa !83
  store ptr %1, ptr %4, align 8, !tbaa !71
  %5 = load ptr, ptr %3, align 8
  %6 = getelementptr inbounds nuw %"class.absl::lts_20240722::MutexLock", ptr %5, i32 0, i32 0
  %7 = load ptr, ptr %4, align 8, !tbaa !71
  store ptr %7, ptr %6, align 8, !tbaa !85
  %8 = getelementptr inbounds nuw %"class.absl::lts_20240722::MutexLock", ptr %5, i32 0, i32 0
  %9 = load ptr, ptr %8, align 8, !tbaa !85
  call void @_ZN4absl12lts_202407225Mutex4LockEv(ptr noundef nonnull align 8 dereferenceable(8) %9)
  ret void
}

; Function Attrs: mustprogress nounwind uwtable
define linkonce_odr noundef ptr @_ZNK9grpc_core13RefCountedPtrINS_16HandshakeManagerEEptEv(ptr noundef nonnull align 8 dereferenceable(8) %0) #6 comdat align 2 {
  %2 = alloca ptr, align 8
  store ptr %0, ptr %2, align 8, !tbaa !133
  %3 = load ptr, ptr %2, align 8
  %4 = getelementptr inbounds nuw %"class.grpc_core::RefCountedPtr.24", ptr %3, i32 0, i32 0
  %5 = load ptr, ptr %4, align 8, !tbaa !135
  ret ptr %5
}

; Function Attrs: mustprogress uwtable
define linkonce_odr noundef i64 @_ZN4absl12lts_202407226Status12MovedFromRepEv() #4 comdat align 2 {
  %1 = call noundef i64 @_ZN4absl12lts_202407226Status16CodeToInlinedRepENS0_10StatusCodeE(i32 noundef 13)
  %2 = or i64 %1, 2
  ret i64 %2
}

; Function Attrs: mustprogress nounwind uwtable
define linkonce_odr void @_ZN4absl12lts_202407226StatusC2Em(ptr noundef nonnull align 8 dereferenceable(8) %0, i64 noundef %1) unnamed_addr #6 comdat align 2 {
  %3 = alloca ptr, align 8
  %4 = alloca i64, align 8
  store ptr %0, ptr %3, align 8, !tbaa !10
  store i64 %1, ptr %4, align 8, !tbaa !70
  %5 = load ptr, ptr %3, align 8
  %6 = getelementptr inbounds nuw %"class.absl::lts_20240722::Status", ptr %5, i32 0, i32 0
  %7 = load i64, ptr %4, align 8, !tbaa !70
  store i64 %7, ptr %6, align 8, !tbaa !35
  ret void
}

; Function Attrs: inlinehint mustprogress uwtable
define internal void @"_ZZN9grpc_core16HandshakeManager24CallNextHandshakerLockedEN4absl12lts_202407226StatusEEN3$_1clES3_"(ptr noundef nonnull align 8 dereferenceable(8) %0, ptr noundef %1) #9 align 2 personality ptr @__gxx_personality_v0 {
  %3 = alloca ptr, align 8
  %4 = alloca ptr, align 8
  %5 = alloca %"class.absl::lts_20240722::MutexLock", align 8
  %6 = alloca %"class.absl::lts_20240722::Status", align 8
  %7 = alloca ptr, align 8
  %8 = alloca i32, align 4
  store ptr %0, ptr %3, align 8, !tbaa !39
  store ptr %1, ptr %4, align 8, !tbaa !10
  %9 = load ptr, ptr %3, align 8
  call void @llvm.lifetime.start.p0(i64 8, ptr %5) #3
  %10 = getelementptr inbounds nuw %class.anon.33, ptr %9, i32 0, i32 0
  %11 = call noundef ptr @_ZNK9grpc_core13RefCountedPtrINS_16HandshakeManagerEEptEv(ptr noundef nonnull align 8 dereferenceable(8) %10)
  %12 = getelementptr inbounds nuw %"class.grpc_core::HandshakeManager", ptr %11, i32 0, i32 1
  call void @_ZN4absl12lts_202407229MutexLockC2EPNS0_5MutexE(ptr noundef nonnull align 8 dereferenceable(8) %5, ptr noundef %12)
  %13 = getelementptr inbounds nuw %class.anon.33, ptr %9, i32 0, i32 0
  %14 = call noundef ptr @_ZNK9grpc_core13RefCountedPtrINS_16HandshakeManagerEEptEv(ptr noundef nonnull align 8 dereferenceable(8) %13)
  call void @_ZN4absl12lts_202407226StatusC2EOS1_(ptr noundef nonnull align 8 dereferenceable(8) %6, ptr noundef nonnull align 8 dereferenceable(8) %1) #3
  invoke void @_ZN9grpc_core16HandshakeManager24CallNextHandshakerLockedEN4absl12lts_202407226StatusE(ptr noundef nonnull align 16 dereferenceable(400) %14, ptr noundef %6)
          to label %15 unwind label %16

15:                                               ; preds = %2
  call void @_ZN4absl12lts_202407226StatusD2Ev(ptr noundef nonnull align 8 dereferenceable(8) %6) #3
  call void @_ZN4absl12lts_202407229MutexLockD2Ev(ptr noundef nonnull align 8 dereferenceable(8) %5) #3
  call void @llvm.lifetime.end.p0(i64 8, ptr %5) #3
  ret void

16:                                               ; preds = %2
  %17 = landingpad { ptr, i32 }
          cleanup
  %18 = extractvalue { ptr, i32 } %17, 0
  store ptr %18, ptr %7, align 8
  %19 = extractvalue { ptr, i32 } %17, 1
  store i32 %19, ptr %8, align 4
  call void @_ZN4absl12lts_202407226StatusD2Ev(ptr noundef nonnull align 8 dereferenceable(8) %6) #3
  call void @_ZN4absl12lts_202407229MutexLockD2Ev(ptr noundef nonnull align 8 dereferenceable(8) %5) #3
  call void @llvm.lifetime.end.p0(i64 8, ptr %5) #3
  br label %20

20:                                               ; preds = %16
  %21 = load ptr, ptr %7, align 8
  %22 = load i32, ptr %8, align 4
  %23 = insertvalue { ptr, i32 } poison, ptr %21, 0
  %24 = insertvalue { ptr, i32 } %23, i32 %22, 1
  resume { ptr, i32 } %24
}

; Function Attrs: inlinehint mustprogress nounwind uwtable
define linkonce_odr void @_ZN4absl12lts_202407226StatusC2EOS1_(ptr noundef nonnull align 8 dereferenceable(8) %0, ptr noundef nonnull align 8 dereferenceable(8) %1) unnamed_addr #7 comdat align 2 personality ptr @__gxx_personality_v0 {
  %3 = alloca ptr, align 8
  %4 = alloca ptr, align 8
  store ptr %0, ptr %3, align 8, !tbaa !10
  store ptr %1, ptr %4, align 8, !tbaa !10
  %5 = load ptr, ptr %3, align 8
  %6 = load ptr, ptr %4, align 8, !tbaa !10
  %7 = getelementptr inbounds nuw %"class.absl::lts_20240722::Status", ptr %6, i32 0, i32 0
  %8 = load i64, ptr %7, align 8, !tbaa !35
  invoke void @_ZN4absl12lts_202407226StatusC2Em(ptr noundef nonnull align 8 dereferenceable(8) %5, i64 noundef %8)
          to label %9 unwind label %14

9:                                                ; preds = %2
  %10 = invoke noundef i64 @_ZN4absl12lts_202407226Status12MovedFromRepEv()
          to label %11 unwind label %14

11:                                               ; preds = %9
  %12 = load ptr, ptr %4, align 8, !tbaa !10
  %13 = getelementptr inbounds nuw %"class.absl::lts_20240722::Status", ptr %12, i32 0, i32 0
  store i64 %10, ptr %13, align 8, !tbaa !35
  ret void

14:                                               ; preds = %9, %2
  %15 = landingpad { ptr, i32 }
          catch ptr null
  %16 = extractvalue { ptr, i32 } %15, 0
  call void @__clang_call_terminate(ptr %16) #23
  unreachable
}

; Function Attrs: mustprogress uwtable
define internal void @"_ZSt13__invoke_implIvRZN9grpc_core16HandshakeManager24CallNextHandshakerLockedEN4absl12lts_202407226StatusEE3$_1JS4_EET_St14__invoke_otherOT0_DpOT1_"(ptr noundef nonnull align 8 dereferenceable(8) %0, ptr noundef nonnull align 8 dereferenceable(8) %1) #4 personality ptr @__gxx_personality_v0 {
  %3 = alloca ptr, align 8
  %4 = alloca ptr, align 8
  %5 = alloca %"class.absl::lts_20240722::Status", align 8
  %6 = alloca ptr, align 8
  %7 = alloca i32, align 4
  store ptr %0, ptr %3, align 8, !tbaa !39
  store ptr %1, ptr %4, align 8, !tbaa !10
  %8 = load ptr, ptr %3, align 8, !tbaa !39
  %9 = load ptr, ptr %4, align 8, !tbaa !10
  call void @_ZN4absl12lts_202407226StatusC2EOS1_(ptr noundef nonnull align 8 dereferenceable(8) %5, ptr noundef nonnull align 8 dereferenceable(8) %9) #3
  invoke void @"_ZZN9grpc_core16HandshakeManager24CallNextHandshakerLockedEN4absl12lts_202407226StatusEEN3$_1clES3_"(ptr noundef nonnull align 8 dereferenceable(8) %8, ptr noundef %5)
          to label %10 unwind label %11

10:                                               ; preds = %2
  call void @_ZN4absl12lts_202407226StatusD2Ev(ptr noundef nonnull align 8 dereferenceable(8) %5) #3
  ret void

11:                                               ; preds = %2
  %12 = landingpad { ptr, i32 }
          cleanup
  %13 = extractvalue { ptr, i32 } %12, 0
  store ptr %13, ptr %6, align 8
  %14 = extractvalue { ptr, i32 } %12, 1
  store i32 %14, ptr %7, align 4
  call void @_ZN4absl12lts_202407226StatusD2Ev(ptr noundef nonnull align 8 dereferenceable(8) %5) #3
  br label %15

15:                                               ; preds = %11
  %16 = load ptr, ptr %6, align 8
  %17 = load i32, ptr %7, align 4
  %18 = insertvalue { ptr, i32 } poison, ptr %16, 0
  %19 = insertvalue { ptr, i32 } %18, i32 %17, 1
  resume { ptr, i32 } %19
}

; Function Attrs: mustprogress uwtable
define internal void @"_ZSt8__invokeIRZN9grpc_core16HandshakeManager24CallNextHandshakerLockedEN4absl12lts_202407226StatusEE3$_1JS4_EENSt15__invoke_resultIT_JDpT0_EE4typeEOS8_DpOS9_"(ptr noundef nonnull align 8 dereferenceable(8) %0, ptr noundef nonnull align 8 dereferenceable(8) %1) #4 {
  %3 = alloca ptr, align 8
  %4 = alloca ptr, align 8
  store ptr %0, ptr %3, align 8, !tbaa !39
  store ptr %1, ptr %4, align 8, !tbaa !10
  %5 = load ptr, ptr %3, align 8, !tbaa !39
  %6 = load ptr, ptr %4, align 8, !tbaa !10
  call void @"_ZSt13__invoke_implIvRZN9grpc_core16HandshakeManager24CallNextHandshakerLockedEN4absl12lts_202407226StatusEE3$_1JS4_EET_St14__invoke_otherOT0_DpOT1_"(ptr noundef nonnull align 8 dereferenceable(8) %5, ptr noundef nonnull align 8 dereferenceable(8) %6)
  ret void
}

; Function Attrs: inlinehint mustprogress uwtable
define internal void @"_ZSt6invokeIRZN9grpc_core16HandshakeManager24CallNextHandshakerLockedEN4absl12lts_202407226StatusEE3$_1JS4_EENSt13invoke_resultIT_JDpT0_EE4typeEOS8_DpOS9_"(ptr noundef nonnull align 8 dereferenceable(8) %0, ptr noundef nonnull align 8 dereferenceable(8) %1) #9 {
  %3 = alloca ptr, align 8
  %4 = alloca ptr, align 8
  store ptr %0, ptr %3, align 8, !tbaa !39
  store ptr %1, ptr %4, align 8, !tbaa !10
  %5 = load ptr, ptr %3, align 8, !tbaa !39
  %6 = load ptr, ptr %4, align 8, !tbaa !10
  call void @"_ZSt8__invokeIRZN9grpc_core16HandshakeManager24CallNextHandshakerLockedEN4absl12lts_202407226StatusEE3$_1JS4_EENSt15__invoke_resultIT_JDpT0_EE4typeEOS8_DpOS9_"(ptr noundef nonnull align 8 dereferenceable(8) %5, ptr noundef nonnull align 8 dereferenceable(8) %6)
  ret void
}

; Function Attrs: mustprogress nounwind uwtable
define internal noundef ptr @"_ZSt7launderIZN9grpc_core16HandshakeManager24CallNextHandshakerLockedEN4absl12lts_202407226StatusEE3$_1EPT_S7_"(ptr noundef %0) #6 {
  %2 = alloca ptr, align 8
  store ptr %0, ptr %2, align 8, !tbaa !39
  %3 = load ptr, ptr %2, align 8, !tbaa !39
  ret ptr %3
}

; Function Attrs: mustprogress uwtable
define internal void @"_ZN4absl12lts_2024072222internal_any_invocable7InvokeRIvRZN9grpc_core16HandshakeManager24CallNextHandshakerLockedENS0_6StatusEE3$_1JS5_EvEEvOT0_DpOT1_"(ptr noundef nonnull align 8 dereferenceable(8) %0, ptr noundef nonnull align 8 dereferenceable(8) %1) #4 {
  %3 = alloca ptr, align 8
  %4 = alloca ptr, align 8
  store ptr %0, ptr %3, align 8, !tbaa !39
  store ptr %1, ptr %4, align 8, !tbaa !10
  %5 = load ptr, ptr %3, align 8, !tbaa !39
  %6 = load ptr, ptr %4, align 8, !tbaa !10
  call void @"_ZSt6invokeIRZN9grpc_core16HandshakeManager24CallNextHandshakerLockedEN4absl12lts_202407226StatusEE3$_1JS4_EENSt13invoke_resultIT_JDpT0_EE4typeEOS8_DpOS9_"(ptr noundef nonnull align 8 dereferenceable(8) %5, ptr noundef nonnull align 8 dereferenceable(8) %6)
  ret void
}

; Function Attrs: mustprogress nounwind uwtable
define internal noundef nonnull align 8 dereferenceable(8) ptr @"_ZN4absl12lts_2024072222internal_any_invocable20ObjectInLocalStorageIZN9grpc_core16HandshakeManager24CallNextHandshakerLockedENS0_6StatusEE3$_1EERT_PNS1_15TypeErasedStateE"(ptr noundef %0) #6 {
  %2 = alloca ptr, align 8
  store ptr %0, ptr %2, align 8, !tbaa !164
  %3 = load ptr, ptr %2, align 8, !tbaa !164
  %4 = call noundef ptr @"_ZSt7launderIZN9grpc_core16HandshakeManager24CallNextHandshakerLockedEN4absl12lts_202407226StatusEE3$_1EPT_S7_"(ptr noundef %3) #3
  ret ptr %4
}

; Function Attrs: mustprogress uwtable
define internal void @"_ZN4absl12lts_2024072222internal_any_invocable12LocalInvokerILb0EvRZN9grpc_core16HandshakeManager24CallNextHandshakerLockedENS0_6StatusEE3$_1JS5_EEET0_PNS1_15TypeErasedStateEDpNS1_18ForwardedParameterIT2_E4typeE"(ptr noundef %0, ptr noundef nonnull align 8 dereferenceable(8) %1) #4 {
  %3 = alloca ptr, align 8
  %4 = alloca ptr, align 8
  %5 = alloca ptr, align 8
  store ptr %0, ptr %3, align 8, !tbaa !164
  store ptr %1, ptr %4, align 8, !tbaa !10
  call void @llvm.lifetime.start.p0(i64 8, ptr %5) #3
  %6 = load ptr, ptr %3, align 8, !tbaa !164
  %7 = call noundef nonnull align 8 dereferenceable(8) ptr @"_ZN4absl12lts_2024072222internal_any_invocable20ObjectInLocalStorageIZN9grpc_core16HandshakeManager24CallNextHandshakerLockedENS0_6StatusEE3$_1EERT_PNS1_15TypeErasedStateE"(ptr noundef %6)
  store ptr %7, ptr %5, align 8, !tbaa !39
  %8 = load ptr, ptr %5, align 8, !tbaa !39
  %9 = load ptr, ptr %4, align 8, !tbaa !10
  call void @"_ZN4absl12lts_2024072222internal_any_invocable7InvokeRIvRZN9grpc_core16HandshakeManager24CallNextHandshakerLockedENS0_6StatusEE3$_1JS5_EvEEvOT0_DpOT1_"(ptr noundef nonnull align 8 dereferenceable(8) %8, ptr noundef nonnull align 8 dereferenceable(8) %9)
  call void @llvm.lifetime.end.p0(i64 8, ptr %5) #3
  ret void
}