; Function Attrs: mustprogress uwtable
define internal void @"_ZN4absl12lts_2024072222internal_any_invocable12LocalInvokerILb0EvRZN9grpc_core16HandshakeManager24CallNextHandshakerLockedENS0_6StatusEE3$_1JS5_EEET0_PNS1_15TypeErasedStateEDpNS1_18ForwardedParameterIT2_E4typeE"(ptr noundef readonly captures(none) %0, ptr noundef nonnull align 8 captures(none) dereferenceable(8) %1) #3 personality ptr @__gxx_personality_v0 {
  %3 = alloca %"class.absl::lts_20240722::Status", align 8
  %4 = alloca %"class.absl::lts_20240722::Status", align 8
  call void @llvm.lifetime.start.p0(i64 8, ptr nonnull %4)
  %5 = load i64, ptr %1, align 8, !tbaa !30
  store i64 %5, ptr %4, align 8, !tbaa !30
  store i64 55, ptr %1, align 8, !tbaa !30
  call void @llvm.lifetime.start.p0(i64 8, ptr nonnull %3)
  %6 = load ptr, ptr %0, align 8, !tbaa !105
  %7 = getelementptr inbounds nuw i8, ptr %6, i64 16
  invoke void @_ZN4absl12lts_202407225Mutex4LockEv(ptr noundef nonnull align 8 dereferenceable(8) %7)
          to label %.noexc.i.i.i.i unwind label %25

.noexc.i.i.i.i:                                   ; preds = %2
  %8 = load ptr, ptr %0, align 8, !tbaa !105
  store i64 %5, ptr %3, align 8, !tbaa !30
  store i64 55, ptr %4, align 8, !tbaa !30
  invoke void @_ZN9grpc_core16HandshakeManager24CallNextHandshakerLockedEN4absl12lts_202407226StatusE(ptr noundef nonnull align 16 dereferenceable(400) %8, ptr noundef nonnull %3)
          to label %9 unwind label %20

9:                                                ; preds = %.noexc.i.i.i.i
  %10 = load i64, ptr %3, align 8, !tbaa !30
  %11 = and i64 %10, 1
  %.not.i.i.i.i.i.i.i = icmp eq i64 %11, 0
  br i1 %.not.i.i.i.i.i.i.i, label %12, label %_ZN4absl12lts_202407226StatusD2Ev.exit.i.i.i.i.i

12:                                               ; preds = %9
  %13 = inttoptr i64 %10 to ptr
  invoke void @_ZNK4absl12lts_2024072215status_internal9StatusRep5UnrefEv(ptr noundef nonnull align 8 dereferenceable(48) %13)
          to label %_ZN4absl12lts_202407226StatusD2Ev.exit.i.i.i.i.i unwind label %14

14:                                               ; preds = %12
  %15 = landingpad { ptr, i32 }
          catch ptr null
  %16 = extractvalue { ptr, i32 } %15, 0
  call void @__clang_call_terminate(ptr %16) #27
  unreachable

_ZN4absl12lts_202407226StatusD2Ev.exit.i.i.i.i.i: ; preds = %12, %9
  invoke void @_ZN4absl12lts_202407225Mutex6UnlockEv(ptr noundef nonnull align 8 dereferenceable(8) %7)
          to label %"_ZN4absl12lts_2024072222internal_any_invocable7InvokeRIvRZN9grpc_core16HandshakeManager24CallNextHandshakerLockedENS0_6StatusEE3$_1JS5_EvEEvOT0_DpOT1_.exit" unwind label %17

17:                                               ; preds = %_ZN4absl12lts_202407226StatusD2Ev.exit.i.i.i.i.i
  %18 = landingpad { ptr, i32 }
          catch ptr null
  %19 = extractvalue { ptr, i32 } %18, 0
  call void @__clang_call_terminate(ptr %19) #27
  unreachable

20:                                               ; preds = %.noexc.i.i.i.i
  %21 = landingpad { ptr, i32 }
          cleanup
  call void @_ZN4absl12lts_202407226StatusD2Ev(ptr noundef nonnull align 8 dereferenceable(8) %3) #25
  invoke void @_ZN4absl12lts_202407225Mutex6UnlockEv(ptr noundef nonnull align 8 dereferenceable(8) %7)
          to label %.body.i.i.i.i unwind label %22

22:                                               ; preds = %20
  %23 = landingpad { ptr, i32 }
          catch ptr null
  %24 = extractvalue { ptr, i32 } %23, 0
  call void @__clang_call_terminate(ptr %24) #27
  unreachable

25:                                               ; preds = %2
  %26 = landingpad { ptr, i32 }
          cleanup
  br label %.body.i.i.i.i

.body.i.i.i.i:                                    ; preds = %25, %20
  %eh.lpad-body.i.i.i.i = phi { ptr, i32 } [ %26, %25 ], [ %21, %20 ]
  call void @_ZN4absl12lts_202407226StatusD2Ev(ptr noundef nonnull align 8 dereferenceable(8) %4) #25
  resume { ptr, i32 } %eh.lpad-body.i.i.i.i

"_ZN4absl12lts_2024072222internal_any_invocable7InvokeRIvRZN9grpc_core16HandshakeManager24CallNextHandshakerLockedENS0_6StatusEE3$_1JS5_EvEEvOT0_DpOT1_.exit": ; preds = %_ZN4absl12lts_202407226StatusD2Ev.exit.i.i.i.i.i
  call void @llvm.lifetime.end.p0(i64 8, ptr nonnull %3)
  call void @llvm.lifetime.end.p0(i64 8, ptr nonnull %4)
  ret void
}